Certificate:
    Data:
        Version: 3 (0x2)
        Serial Number: 7 (0x7)
    Signature Algorithm: sha1WithRSAEncryption
        Issuer: C=GB, O=Certificate Transparency CA, ST=Wales, L=Erw Wen
        Validity
            Not Before: Jun  1 00:00:00 2012 GMT
            Not After : Jun  1 00:00:00 2022 GMT
        Subject: C=GB, O=Certificate Transparency, ST=Wales, L=Erw Wen
        Subject Public Key Info:
            Public Key Algorithm: rsaEncryption
                Public-Key: (1024 bit)
                Modulus:
                    00:be:ef:98:e7:c2:68:77:ae:38:5f:75:32:5a:0c:
                    1d:32:9b:ed:f1:8f:aa:f4:d7:96:bf:04:7e:b7:e1:
                    ce:15:c9:5b:a2:f8:0e:e4:58:bd:7d:b8:6f:8a:4b:
                    25:21:91:a7:9b:d7:00:c3:8e:9c:03:89:b4:5c:d4:
                    dc:9a:12:0a:b2:1e:0c:b4:1c:d0:e7:28:05:a4:10:
                    cd:9c:5b:db:5d:49:27:72:6d:af:17:10:f6:01:87:
                    37:7e:a2:5b:1a:1e:39:ee:d0:b8:81:19:dc:15:4d:
                    c6:8f:7d:a8:e3:0c:af:15:8a:33:e6:c9:50:9f:4a:
                    05:b0:14:09:ff:5d:d8:7e:b5
                Exponent: 65537 (0x10001)
        X509v3 extensions:
            X509v3 Subject Key Identifier: 
                20:31:54:1A:F2:5C:05:FF:D8:65:8B:68:43:79:4F:5E:90:36:F7:B4
            X509v3 Authority Key Identifier: 
                keyid:5F:9D:88:0D:C8:73:E6:54:D4:F8:0D:D8:E6:B0:C1:24:B4:47:C3:55
                DirName:/C=GB/O=Certificate Transparency CA/ST=Wales/L=Erw Wen
                serial:00

            X509v3 Basic Constraints: 
                CA:FALSE
    Signature Algorithm: sha1WithRSAEncryption
         04:59:00:c8:0d:db:36:35:30:ed:e3:24:8e:e9:f0:ed:85:45:
         e8:05:ca:7e:2c:cd:62:a6:4e:9d:28:a8:02:f7:82:79:93:59:
         6d:6b:ff:f5:b2:5e:3f:3c:48:04:2a:7b:a4:e4:03:c7:f3:bc:
         e0:cc:6d:22:b7:c1:23:ba:b4:20:d9:23:65:1e:58:46:67:ce:
         80:99:94:82:c0:7b:e6:93:cc:fd:83:b1:d2:54:82:ad:ac:a3:
         9d:32:1a:c7:13:79:d6:eb:8f:4f:59:47:51:71:b1:a3:09:e6:
         82:f4:c4:f1:5a:ff:5c:18:2e:cd:a8:32:91:35:c1:96:5a:23:
         77:0e
-----BEGIN CERTIFICATE-----
MIICyjCCAjOgAwIBAgIBBzANBgkqhkiG9w0BAQUFADBVMQswCQYDVQQGEwJHQjEk
MCIGA1UEChMbQ2VydGlmaWNhdGUgVHJhbnNwYXJlbmN5IENBMQ4wDAYDVQQIEwVX
YWxlczEQMA4GA1UEBxMHRXJ3IFdlbjAeFw0xMjA2MDEwMDAwMDBaFw0yMjA2MDEw
MDAwMDBaMFIxCzAJBgNVBAYTAkdCMSEwHwYDVQQKExhDZXJ0aWZpY2F0ZSBUcmFu
c3BhcmVuY3kxDjAMBgNVBAgTBVdhbGVzMRAwDgYDVQQHEwdFcncgV2VuMIGfMA0G
CSqGSIb3DQEBAQUAA4GNADCBiQKBgQC+75jnwmh3rjhfdTJaDB0ym+3xj6r015a/
BH634c4VyVui+A7kWL19uG+KSyUhkaeb1wDDjpwDibRc1NyaEgqyHgy0HNDnKAWk
EM2cW9tdSSdyba8XEPYBhzd+olsaHjnu0LiBGdwVTcaPfajjDK8VijPmyVCfSgWw
FAn/Xdh+tQIDAQABo4GsMIGpMB0GA1UdDgQWBBQgMVQa8lwF/9hli2hDeU9ekDb3
tDB9BgNVHSMEdjB0gBRfnYgNyHPmVNT4DdjmsMEktEfDVaFZpFcwVTELMAkGA1UE
BhMCR0IxJDAiBgNVBAoTG0NlcnRpZmljYXRlIFRyYW5zcGFyZW5jeSBDQTEOMAwG
A1UECBMFV2FsZXMxEDAOBgNVBAcTB0VydyBXZW6CAQAwCQYDVR0TBAIwADANBgkq
hkiG9w0BAQUFAAOBgQAEWQDIDds2NTDt4ySO6fDthUXoBcp+LM1ipk6dKKgC94J5
k1lta//1sl4/PEgEKnuk5APH87zgzG0it8EjurQg2SNlHlhGZ86AmZSCwHvmk8z9
g7HSVIKtrKOdMhrHE3nW649PWUdRcbGjCeaC9MTxWv9cGC7NqDKRNcGWWiN3Dg==
-----END CERTIFICATE-----
